target datalayout = "e-m:e-p270:32:32-p271:32:32-p272:64:64-i64:64-i128:128-f80:128-n8:16:32:64-S128"
target triple = "x86_64-pc-linux-gnu"

%struct.PlannedStmt = type { i32, i32, i64, i8, i8, i8, i8, i8, i8, i32, ptr, ptr, ptr, ptr, ptr, ptr, ptr, ptr, ptr, ptr, ptr, ptr, ptr, ptr, i32, i32 }
%struct.ForEachState = type { ptr, i32 }
%struct.List = type { i32, i32, i32, ptr, [0 x %union.ListCell] }
%union.ListCell = type { ptr }
%struct.PortalData = type { ptr, ptr, ptr, ptr, ptr, i32, i32, i32, ptr, i32, %struct.QueryCompletion, ptr, ptr, ptr, ptr, i32, i32, i32, i8, i8, ptr, ptr, ptr, ptr, ptr, ptr, ptr, i8, i8, i64, i64, i8 }
%struct.QueryCompletion = type { i32, i64 }
%struct._DestReceiver = type { ptr, ptr, ptr, ptr, i32 }

@None_Receiver = external global ptr, align 8
@log_executor_stats = external global i8, align 1
@.str.5 = private unnamed_addr constant [20 x i8] c"EXECUTOR STATISTICS\00", align 1
@InterruptPending = external global i32, align 4

; Function Attrs: inlinehint nounwind uwtable
define internal void @CopyQueryCompletion(ptr noundef %0, ptr noundef %1) #3 {
  %3 = alloca ptr, align 8
  %4 = alloca ptr, align 8
  store ptr %0, ptr %3, align 8
  store ptr %1, ptr %4, align 8
  %5 = load ptr, ptr %4, align 8
  %6 = getelementptr inbounds nuw %struct.QueryCompletion, ptr %5, i32 0, i32 0
  %7 = load i32, ptr %6, align 8
  %8 = load ptr, ptr %3, align 8
  %9 = getelementptr inbounds nuw %struct.QueryCompletion, ptr %8, i32 0, i32 0
  store i32 %7, ptr %9, align 8
  %10 = load ptr, ptr %4, align 8
  %11 = getelementptr inbounds nuw %struct.QueryCompletion, ptr %10, i32 0, i32 1
  %12 = load i64, ptr %11, align 8
  %13 = load ptr, ptr %3, align 8
  %14 = getelementptr inbounds nuw %struct.QueryCompletion, ptr %13, i32 0, i32 1
  store i64 %12, ptr %14, align 8
  ret void
}

; Function Attrs: inlinehint nounwind uwtable
define internal ptr @lnext(ptr noundef %0, ptr noundef %1) #3 {
  %3 = alloca ptr, align 8
  %4 = alloca ptr, align 8
  %5 = alloca ptr, align 8
  store ptr %0, ptr %4, align 8
  store ptr %1, ptr %5, align 8
  %6 = load ptr, ptr %5, align 8
  %7 = getelementptr inbounds nuw %union.ListCell, ptr %6, i32 1
  store ptr %7, ptr %5, align 8
  %8 = load ptr, ptr %5, align 8
  %9 = load ptr, ptr %4, align 8
  %10 = getelementptr inbounds nuw %struct.List, ptr %9, i32 0, i32 3
  %11 = load ptr, ptr %10, align 8
  %12 = load ptr, ptr %4, align 8
  %13 = getelementptr inbounds nuw %struct.List, ptr %12, i32 0, i32 1
  %14 = load i32, ptr %13, align 4
  %15 = sext i32 %14 to i64
  %16 = getelementptr inbounds %union.ListCell, ptr %11, i64 %15
  %17 = icmp ult ptr %8, %16
  br i1 %17, label %18, label %20

18:                                               ; preds = %2
  %19 = load ptr, ptr %5, align 8
  store ptr %19, ptr %3, align 8
  br label %21

20:                                               ; preds = %2
  store ptr null, ptr %3, align 8
  br label %21

21:                                               ; preds = %20, %18
  %22 = load ptr, ptr %3, align 8
  ret ptr %22
}

; Function Attrs: nounwind uwtable
define internal void @PortalRunMulti(ptr noundef %0, i1 noundef zeroext %1, i1 noundef zeroext %2, ptr noundef %3, ptr noundef %4, ptr noundef %5) #0 {
  %7 = alloca ptr, align 8
  %8 = alloca i8, align 1
  %9 = alloca i8, align 1
  %10 = alloca ptr, align 8
  %11 = alloca ptr, align 8
  %12 = alloca ptr, align 8
  %13 = alloca i8, align 1
  %14 = alloca ptr, align 8
  %15 = alloca %struct.ForEachState, align 8
  %16 = alloca i32, align 4
  %17 = alloca ptr, align 8
  %18 = alloca ptr, align 8
  store ptr %0, ptr %7, align 8
  %19 = zext i1 %1 to i8
  store i8 %19, ptr %8, align 1
  %20 = zext i1 %2 to i8
  store i8 %20, ptr %9, align 1
  store ptr %3, ptr %10, align 8
  store ptr %4, ptr %11, align 8
  store ptr %5, ptr %12, align 8
  call void @llvm.lifetime.start.p0(i64 1, ptr %13) #10
  store i8 0, ptr %13, align 1
  call void @llvm.lifetime.start.p0(i64 8, ptr %14) #10
  %21 = load ptr, ptr %10, align 8
  %22 = getelementptr inbounds nuw %struct._DestReceiver, ptr %21, i32 0, i32 4
  %23 = load i32, ptr %22, align 8
  %24 = icmp eq i32 %23, 3
  br i1 %24, label %25, label %27

25:                                               ; preds = %6
  %26 = load ptr, ptr @None_Receiver, align 8
  store ptr %26, ptr %10, align 8
  br label %27

27:                                               ; preds = %25, %6
  %28 = load ptr, ptr %11, align 8
  %29 = getelementptr inbounds nuw %struct._DestReceiver, ptr %28, i32 0, i32 4
  %30 = load i32, ptr %29, align 8
  %31 = icmp eq i32 %30, 3
  br i1 %31, label %32, label %34

32:                                               ; preds = %27
  %33 = load ptr, ptr @None_Receiver, align 8
  store ptr %33, ptr %11, align 8
  br label %34

34:                                               ; preds = %32, %27
  call void @llvm.lifetime.start.p0(i64 16, ptr %15) #10
  %35 = getelementptr inbounds nuw %struct.ForEachState, ptr %15, i32 0, i32 0
  %36 = load ptr, ptr %7, align 8
  %37 = getelementptr inbounds nuw %struct.PortalData, ptr %36, i32 0, i32 11
  %38 = load ptr, ptr %37, align 8
  store ptr %38, ptr %35, align 8
  %39 = getelementptr inbounds nuw %struct.ForEachState, ptr %15, i32 0, i32 1
  store i32 0, ptr %39, align 8
  %40 = getelementptr i8, ptr %15, i64 12
  call void @llvm.memset.p0.i64(ptr align 4 %40, i8 0, i64 4, i1 false)
  br label %41

41:                                               ; preds = %186, %34
  %42 = getelementptr inbounds nuw %struct.ForEachState, ptr %15, i32 0, i32 0
  %43 = load ptr, ptr %42, align 8
  %44 = icmp ne ptr %43, null
  br i1 %44, label %45, label %62

45:                                               ; preds = %41
  %46 = getelementptr inbounds nuw %struct.ForEachState, ptr %15, i32 0, i32 1
  %47 = load i32, ptr %46, align 8
  %48 = getelementptr inbounds nuw %struct.ForEachState, ptr %15, i32 0, i32 0
  %49 = load ptr, ptr %48, align 8
  %50 = getelementptr inbounds nuw %struct.List, ptr %49, i32 0, i32 1
  %51 = load i32, ptr %50, align 4
  %52 = icmp slt i32 %47, %51
  br i1 %52, label %53, label %62

53:                                               ; preds = %45
  %54 = getelementptr inbounds nuw %struct.ForEachState, ptr %15, i32 0, i32 0
  %55 = load ptr, ptr %54, align 8
  %56 = getelementptr inbounds nuw %struct.List, ptr %55, i32 0, i32 3
  %57 = load ptr, ptr %56, align 8
  %58 = getelementptr inbounds nuw %struct.ForEachState, ptr %15, i32 0, i32 1
  %59 = load i32, ptr %58, align 8
  %60 = sext i32 %59 to i64
  %61 = getelementptr inbounds %union.ListCell, ptr %57, i64 %60
  store ptr %61, ptr %14, align 8
  br label %63

62:                                               ; preds = %45, %41
  store ptr null, ptr %14, align 8
  br label %63

63:                                               ; preds = %62, %53
  %64 = phi i32 [ 1, %53 ], [ 0, %62 ]
  %65 = icmp ne i32 %64, 0
  br i1 %65, label %67, label %66

66:                                               ; preds = %63
  store i32 2, ptr %16, align 4
  br label %190

67:                                               ; preds = %63
  call void @llvm.lifetime.start.p0(i64 8, ptr %17) #10
  %68 = load ptr, ptr %14, align 8
  %69 = load ptr, ptr %68, align 8
  store ptr %69, ptr %17, align 8
  br label %70

70:                                               ; preds = %67
  %71 = load volatile i32, ptr @InterruptPending, align 4
  %72 = icmp ne i32 %71, 0
  %73 = zext i1 %72 to i32
  %74 = sext i32 %73 to i64
  %75 = call i64 @llvm.expect.i64(i64 %74, i64 0)
  %76 = icmp ne i64 %75, 0
  br i1 %76, label %77, label %78

77:                                               ; preds = %70
  call void @ProcessInterrupts()
  br label %78

78:                                               ; preds = %77, %70
  br label %79

79:                                               ; preds = %78
  br label %80

80:                                               ; preds = %79
  %81 = load ptr, ptr %17, align 8
  %82 = getelementptr inbounds nuw %struct.PlannedStmt, ptr %81, i32 0, i32 23
  %83 = load ptr, ptr %82, align 8
  %84 = icmp eq ptr %83, null
  br i1 %84, label %85, label %146

85:                                               ; preds = %80
  br label %86

86:                                               ; preds = %85
  br label %87

87:                                               ; preds = %86
  br label %88

88:                                               ; preds = %87
  %89 = load i8, ptr @log_executor_stats, align 1, !range !4, !noundef !5
  %90 = trunc i8 %89 to i1
  br i1 %90, label %91, label %92

91:                                               ; preds = %88
  call void @ResetUsage()
  br label %92

92:                                               ; preds = %91, %88
  %93 = load i8, ptr %13, align 1, !range !4, !noundef !5
  %94 = trunc i8 %93 to i1
  br i1 %94, label %107, label %95

95:                                               ; preds = %92
  call void @llvm.lifetime.start.p0(i64 8, ptr %18) #10
  %96 = call ptr @GetTransactionSnapshot()
  store ptr %96, ptr %18, align 8
  %97 = load i8, ptr %9, align 1, !range !4, !noundef !5
  %98 = trunc i8 %97 to i1
  br i1 %98, label %99, label %105

99:                                               ; preds = %95
  %100 = load ptr, ptr %18, align 8
  %101 = call ptr @RegisterSnapshot(ptr noundef %100)
  store ptr %101, ptr %18, align 8
  %102 = load ptr, ptr %18, align 8
  %103 = load ptr, ptr %7, align 8
  %104 = getelementptr inbounds nuw %struct.PortalData, ptr %103, i32 0, i32 26
  store ptr %102, ptr %104, align 8
  br label %105

105:                                              ; preds = %99, %95
  %106 = load ptr, ptr %18, align 8
  call void @PushCopiedSnapshot(ptr noundef %106)
  store i8 1, ptr %13, align 1
  call void @llvm.lifetime.end.p0(i64 8, ptr %18) #10
  br label %108

107:                                              ; preds = %92
  call void @UpdateActiveSnapshotCommandId()
  br label %108

108:                                              ; preds = %107, %105
  %109 = load ptr, ptr %17, align 8
  %110 = getelementptr inbounds nuw %struct.PlannedStmt, ptr %109, i32 0, i32 5
  %111 = load i8, ptr %110, align 2, !range !4, !noundef !5
  %112 = trunc i8 %111 to i1
  br i1 %112, label %113, label %126

113:                                              ; preds = %108
  %114 = load ptr, ptr %17, align 8
  %115 = load ptr, ptr %7, align 8
  %116 = getelementptr inbounds nuw %struct.PortalData, ptr %115, i32 0, i32 8
  %117 = load ptr, ptr %116, align 8
  %118 = load ptr, ptr %7, align 8
  %119 = getelementptr inbounds nuw %struct.PortalData, ptr %118, i32 0, i32 13
  %120 = load ptr, ptr %119, align 8
  %121 = load ptr, ptr %7, align 8
  %122 = getelementptr inbounds nuw %struct.PortalData, ptr %121, i32 0, i32 14
  %123 = load ptr, ptr %122, align 8
  %124 = load ptr, ptr %10, align 8
  %125 = load ptr, ptr %12, align 8
  call void @ProcessQuery(ptr noundef %114, ptr noundef %117, ptr noundef %120, ptr noundef %123, ptr noundef %124, ptr noundef %125)
  br label %138

126:                                              ; preds = %108
  %127 = load ptr, ptr %17, align 8
  %128 = load ptr, ptr %7, align 8
  %129 = getelementptr inbounds nuw %struct.PortalData, ptr %128, i32 0, i32 8
  %130 = load ptr, ptr %129, align 8
  %131 = load ptr, ptr %7, align 8
  %132 = getelementptr inbounds nuw %struct.PortalData, ptr %131, i32 0, i32 13
  %133 = load ptr, ptr %132, align 8
  %134 = load ptr, ptr %7, align 8
  %135 = getelementptr inbounds nuw %struct.PortalData, ptr %134, i32 0, i32 14
  %136 = load ptr, ptr %135, align 8
  %137 = load ptr, ptr %11, align 8
  call void @ProcessQuery(ptr noundef %127, ptr noundef %130, ptr noundef %133, ptr noundef %136, ptr noundef %137, ptr noundef null)
  br label %138

138:                                              ; preds = %126, %113
  %139 = load i8, ptr @log_executor_stats, align 1, !range !4, !noundef !5
  %140 = trunc i8 %139 to i1
  br i1 %140, label %141, label %142

141:                                              ; preds = %138
  call void @ShowUsage(ptr noundef @.str.5)
  br label %142

142:                                              ; preds = %141, %138
  br label %143

143:                                              ; preds = %142
  br label %144

144:                                              ; preds = %143
  br label %145

145:                                              ; preds = %144
  br label %165

146:                                              ; preds = %80
  %147 = load ptr, ptr %17, align 8
  %148 = getelementptr inbounds nuw %struct.PlannedStmt, ptr %147, i32 0, i32 5
  %149 = load i8, ptr %148, align 2, !range !4, !noundef !5
  %150 = trunc i8 %149 to i1
  br i1 %150, label %151, label %158

151:                                              ; preds = %146
  %152 = load ptr, ptr %7, align 8
  %153 = load ptr, ptr %17, align 8
  %154 = load i8, ptr %8, align 1, !range !4, !noundef !5
  %155 = trunc i8 %154 to i1
  %156 = load ptr, ptr %10, align 8
  %157 = load ptr, ptr %12, align 8
  call void @PortalRunUtility(ptr noundef %152, ptr noundef %153, i1 noundef zeroext %155, i1 noundef zeroext false, ptr noundef %156, ptr noundef %157)
  br label %164

158:                                              ; preds = %146
  %159 = load ptr, ptr %7, align 8
  %160 = load ptr, ptr %17, align 8
  %161 = load i8, ptr %8, align 1, !range !4, !noundef !5
  %162 = trunc i8 %161 to i1
  %163 = load ptr, ptr %11, align 8
  call void @PortalRunUtility(ptr noundef %159, ptr noundef %160, i1 noundef zeroext %162, i1 noundef zeroext false, ptr noundef %163, ptr noundef null)
  br label %164

164:                                              ; preds = %158, %151
  br label %165

165:                                              ; preds = %164, %145
  %166 = load ptr, ptr %7, align 8
  %167 = getelementptr inbounds nuw %struct.PortalData, ptr %166, i32 0, i32 2
  %168 = load ptr, ptr %167, align 8
  call void @MemoryContextDeleteChildren(ptr noundef %168)
  %169 = load ptr, ptr %7, align 8
  %170 = getelementptr inbounds nuw %struct.PortalData, ptr %169, i32 0, i32 11
  %171 = load ptr, ptr %170, align 8
  %172 = icmp eq ptr %171, null
  br i1 %172, label %173, label %174

173:                                              ; preds = %165
  store i32 2, ptr %16, align 4
  br label %183

174:                                              ; preds = %165
  %175 = load ptr, ptr %7, align 8
  %176 = getelementptr inbounds nuw %struct.PortalData, ptr %175, i32 0, i32 11
  %177 = load ptr, ptr %176, align 8
  %178 = load ptr, ptr %14, align 8
  %179 = call ptr @lnext(ptr noundef %177, ptr noundef %178)
  %180 = icmp ne ptr %179, null
  br i1 %180, label %181, label %182

181:                                              ; preds = %174
  call void @CommandCounterIncrement()
  br label %182

182:                                              ; preds = %181, %174
  store i32 0, ptr %16, align 4
  br label %183

183:                                              ; preds = %182, %173
  call void @llvm.lifetime.end.p0(i64 8, ptr %17) #10
  %184 = load i32, ptr %16, align 4
  switch i32 %184, label %190 [
    i32 0, label %185
  ]

185:                                              ; preds = %183
  br label %186

186:                                              ; preds = %185
  %187 = getelementptr inbounds nuw %struct.ForEachState, ptr %15, i32 0, i32 1
  %188 = load i32, ptr %187, align 8
  %189 = add i32 %188, 1
  store i32 %189, ptr %187, align 8
  br label %41, !llvm.loop !10

190:                                              ; preds = %183, %66
  call void @llvm.lifetime.end.p0(i64 16, ptr %15) #10
  br label %191

191:                                              ; preds = %190
  %192 = load i8, ptr %13, align 1, !range !4, !noundef !5
  %193 = trunc i8 %192 to i1
  br i1 %193, label %194, label %195

194:                                              ; preds = %191
  call void @PopActiveSnapshot()
  br label %195

195:                                              ; preds = %194, %191
  %196 = load ptr, ptr %12, align 8
  %197 = icmp ne ptr %196, null
  br i1 %197, label %198, label %214

198:                                              ; preds = %195
  %199 = load ptr, ptr %12, align 8
  %200 = getelementptr inbounds nuw %struct.QueryCompletion, ptr %199, i32 0, i32 0
  %201 = load i32, ptr %200, align 8
  %202 = icmp eq i32 %201, 0
  br i1 %202, label %203, label %214

203:                                              ; preds = %198
  %204 = load ptr, ptr %7, align 8
  %205 = getelementptr inbounds nuw %struct.PortalData, ptr %204, i32 0, i32 10
  %206 = getelementptr inbounds nuw %struct.QueryCompletion, ptr %205, i32 0, i32 0
  %207 = load i32, ptr %206, align 8
  %208 = icmp ne i32 %207, 0
  br i1 %208, label %209, label %213

209:                                              ; preds = %203
  %210 = load ptr, ptr %12, align 8
  %211 = load ptr, ptr %7, align 8
  %212 = getelementptr inbounds nuw %struct.PortalData, ptr %211, i32 0, i32 10
  call void @CopyQueryCompletion(ptr noundef %210, ptr noundef %212)
  br label %213

213:                                              ; preds = %209, %203
  br label %214

214:                                              ; preds = %213, %198, %195
  call void @llvm.lifetime.end.p0(i64 8, ptr %14) #10
  call void @llvm.lifetime.end.p0(i64 1, ptr %13) #10
  ret void
}