; Function Attrs: nounwind uwtable
define internal fastcc void @PortalRunMulti(ptr noundef captures(none) %0, i1 noundef zeroext %1, i1 noundef zeroext %2, ptr noundef %3, ptr noundef %4, ptr noundef %5) unnamed_addr #0 {
  %7 = getelementptr inbounds nuw i8, ptr %3, i64 32
  %8 = load i32, ptr %7, align 8
  %9 = icmp eq i32 %8, 3
  %10 = load ptr, ptr @None_Receiver, align 8
  %spec.select = select i1 %9, ptr %10, ptr %3
  %11 = getelementptr inbounds nuw i8, ptr %4, i64 32
  %12 = load i32, ptr %11, align 8
  %13 = icmp eq i32 %12, 3
  %.049 = select i1 %13, ptr %10, ptr %4
  %14 = getelementptr inbounds nuw i8, ptr %0, i64 88
  %15 = load ptr, ptr %14, align 8
  %16 = getelementptr inbounds nuw i8, ptr %15, i64 4
  %.not = icmp eq ptr %15, null
  br i1 %.not, label %.critedge.thread, label %.lr.ph

.lr.ph:                                           ; preds = %6
  %17 = getelementptr inbounds nuw i8, ptr %15, i64 16
  %18 = getelementptr inbounds nuw i8, ptr %0, i64 184
  %19 = getelementptr inbounds nuw i8, ptr %0, i64 56
  %20 = getelementptr inbounds nuw i8, ptr %0, i64 104
  %21 = getelementptr inbounds nuw i8, ptr %0, i64 112
  %22 = getelementptr inbounds nuw i8, ptr %0, i64 16
  %23 = load i32, ptr %16, align 4
  %24 = icmp sgt i32 %23, 0
  br i1 %24, label %.lr.ph74, label %.critedge.thread

.lr.ph74:                                         ; preds = %.lr.ph, %75
  %.0506573 = phi i8 [ %.3, %75 ], [ 0, %.lr.ph ]
  %indvars.iv72 = phi i64 [ %indvars.iv.next, %75 ], [ 0, %.lr.ph ]
  %25 = load ptr, ptr %17, align 8
  %26 = getelementptr inbounds nuw %union.ListCell, ptr %25, i64 %indvars.iv72
  %27 = load ptr, ptr %26, align 8
  %28 = load volatile i32, ptr @InterruptPending, align 4
  %.not56 = icmp eq i32 %28, 0
  br i1 %.not56, label %30, label %29, !prof !9

29:                                               ; preds = %.lr.ph74
  tail call void @ProcessInterrupts() #11
  br label %30

30:                                               ; preds = %29, %.lr.ph74
  %31 = getelementptr inbounds nuw i8, ptr %27, i64 136
  %32 = load ptr, ptr %31, align 8
  %33 = icmp eq ptr %32, null
  br i1 %33, label %34, label %59

34:                                               ; preds = %30
  %35 = load i8, ptr @log_executor_stats, align 1, !range !4, !noundef !5
  %36 = trunc nuw i8 %35 to i1
  br i1 %36, label %37, label %38

37:                                               ; preds = %34
  tail call void @ResetUsage() #11
  br label %38

38:                                               ; preds = %37, %34
  %39 = trunc nuw i8 %.0506573 to i1
  br i1 %39, label %45, label %40

40:                                               ; preds = %38
  %41 = tail call ptr @GetTransactionSnapshot() #11
  br i1 %2, label %42, label %44

42:                                               ; preds = %40
  %43 = tail call ptr @RegisterSnapshot(ptr noundef %41) #11
  store ptr %43, ptr %18, align 8
  br label %44

44:                                               ; preds = %42, %40
  %.0 = phi ptr [ %43, %42 ], [ %41, %40 ]
  tail call void @PushCopiedSnapshot(ptr noundef %.0) #11
  br label %46

45:                                               ; preds = %38
  tail call void @UpdateActiveSnapshotCommandId() #11
  br label %46

46:                                               ; preds = %45, %44
  %47 = getelementptr inbounds nuw i8, ptr %27, i64 18
  %48 = load i8, ptr %47, align 2, !range !4, !noundef !5
  %49 = trunc nuw i8 %48 to i1
  %50 = load ptr, ptr %19, align 8
  %51 = load ptr, ptr %20, align 8
  %52 = load ptr, ptr %21, align 8
  br i1 %49, label %53, label %54

53:                                               ; preds = %46
  tail call fastcc void @ProcessQuery(ptr noundef nonnull %27, ptr noundef %50, ptr noundef %51, ptr noundef %52, ptr noundef %spec.select, ptr noundef %5)
  br label %55

54:                                               ; preds = %46
  tail call fastcc void @ProcessQuery(ptr noundef nonnull %27, ptr noundef %50, ptr noundef %51, ptr noundef %52, ptr noundef %.049, ptr noundef null)
  br label %55

55:                                               ; preds = %54, %53
  %56 = load i8, ptr @log_executor_stats, align 1, !range !4, !noundef !5
  %57 = trunc nuw i8 %56 to i1
  br i1 %57, label %58, label %65

58:                                               ; preds = %55
  tail call void @ShowUsage(ptr noundef nonnull @.str.5) #11
  br label %65

59:                                               ; preds = %30
  %60 = getelementptr inbounds nuw i8, ptr %27, i64 18
  %61 = load i8, ptr %60, align 2, !range !4, !noundef !5
  %62 = trunc nuw i8 %61 to i1
  br i1 %62, label %63, label %64

63:                                               ; preds = %59
  tail call fastcc void @PortalRunUtility(ptr noundef nonnull %0, ptr noundef nonnull %27, i1 noundef zeroext %1, i1 noundef zeroext false, ptr noundef %spec.select, ptr noundef %5)
  br label %65

64:                                               ; preds = %59
  tail call fastcc void @PortalRunUtility(ptr noundef nonnull %0, ptr noundef nonnull %27, i1 noundef zeroext %1, i1 noundef zeroext false, ptr noundef %.049, ptr noundef null)
  br label %65

65:                                               ; preds = %63, %64, %58, %55
  %.3 = phi i8 [ 1, %58 ], [ 1, %55 ], [ %.0506573, %63 ], [ %.0506573, %64 ]
  %66 = load ptr, ptr %22, align 8
  tail call void @MemoryContextDeleteChildren(ptr noundef %66) #11
  %67 = load ptr, ptr %14, align 8
  %.not58 = icmp eq ptr %67, null
  br i1 %.not58, label %.critedge.loopexit, label %68

68:                                               ; preds = %65
  %69 = getelementptr i8, ptr %67, i64 4
  %.val = load i32, ptr %69, align 4
  %70 = getelementptr i8, ptr %67, i64 16
  %.val61 = load ptr, ptr %70, align 8
  %71 = getelementptr inbounds nuw i8, ptr %26, i64 8
  %72 = sext i32 %.val to i64
  %73 = getelementptr inbounds %union.ListCell, ptr %.val61, i64 %72
  %.not64 = icmp ult ptr %71, %73
  br i1 %.not64, label %74, label %75

74:                                               ; preds = %68
  tail call void @CommandCounterIncrement() #11
  br label %75

75:                                               ; preds = %74, %68
  %indvars.iv.next = add nuw nsw i64 %indvars.iv72, 1
  %76 = load i32, ptr %16, align 4
  %77 = sext i32 %76 to i64
  %78 = icmp slt i64 %indvars.iv.next, %77
  br i1 %78, label %.lr.ph74, label %.critedge.loopexit

.critedge.loopexit:                               ; preds = %65, %75
  %79 = trunc nuw i8 %.3 to i1
  br i1 %79, label %80, label %.critedge.thread

80:                                               ; preds = %.critedge.loopexit
  tail call void @PopActiveSnapshot() #11
  br label %.critedge.thread

.critedge.thread:                                 ; preds = %.lr.ph, %6, %80, %.critedge.loopexit
  %.not59 = icmp eq ptr %5, null
  br i1 %.not59, label %91, label %81

81:                                               ; preds = %.critedge.thread
  %82 = load i32, ptr %5, align 8
  %83 = icmp eq i32 %82, 0
  br i1 %83, label %84, label %91

84:                                               ; preds = %81
  %85 = getelementptr inbounds nuw i8, ptr %0, i64 72
  %86 = load i32, ptr %85, align 8
  %.not60 = icmp eq i32 %86, 0
  br i1 %.not60, label %91, label %87

87:                                               ; preds = %84
  store i32 %86, ptr %5, align 8
  %88 = getelementptr inbounds nuw i8, ptr %0, i64 80
  %89 = load i64, ptr %88, align 8
  %90 = getelementptr inbounds nuw i8, ptr %5, i64 8
  store i64 %89, ptr %90, align 8
  br label %91

91:                                               ; preds = %84, %87, %81, %.critedge.thread
  ret void
}